target datalayout = "e-m:e-p270:32:32-p271:32:32-p272:64:64-i64:64-i128:128-f80:128-n8:16:32:64-S128"
target triple = "x86_64-pc-linux-gnu"

%struct.btMiniSDF = type { %struct.btAlignedBox3d, [3 x i32], %class.btVector3, %class.btVector3, i64, i64, i8, [7 x i8], %class.btAlignedObjectArray, %class.btAlignedObjectArray.0, %class.btAlignedObjectArray.2 }
%struct.btAlignedBox3d = type { %class.btVector3, %class.btVector3 }
%class.btVector3 = type { [4 x float] }
%class.btAlignedObjectArray = type <{ [4 x i8], i32, i32, [4 x i8], ptr, i8, [7 x i8] }>
%class.btAlignedObjectArray.0 = type <{ [4 x i8], i32, i32, [4 x i8], ptr, i8, [7 x i8] }>
%class.btAlignedObjectArray.2 = type <{ [4 x i8], i32, i32, [4 x i8], ptr, i8, [7 x i8] }>
%struct.btMultiIndex = type { [3 x i32] }

; Function Attrs: mustprogress nounwind uwtable
define dso_local noundef i32 @_ZNK9btMiniSDF18multiToSingleIndexERK12btMultiIndex(ptr noundef nonnull align 8 dereferenceable(200) %0, ptr noundef nonnull align 4 dereferenceable(12) %1) #1 align 2 {
  %3 = alloca ptr, align 8
  %4 = alloca ptr, align 8
  store ptr %0, ptr %3, align 8, !tbaa !12
  store ptr %1, ptr %4, align 8, !tbaa !105
  %5 = load ptr, ptr %3, align 8
  %6 = getelementptr inbounds nuw %struct.btMiniSDF, ptr %5, i32 0, i32 1
  %7 = getelementptr inbounds [3 x i32], ptr %6, i64 0, i64 1
  %8 = load i32, ptr %7, align 4, !tbaa !9
  %9 = getelementptr inbounds nuw %struct.btMiniSDF, ptr %5, i32 0, i32 1
  %10 = getelementptr inbounds [3 x i32], ptr %9, i64 0, i64 0
  %11 = load i32, ptr %10, align 8, !tbaa !9
  %12 = mul i32 %8, %11
  %13 = load ptr, ptr %4, align 8, !tbaa !105
  %14 = getelementptr inbounds nuw %struct.btMultiIndex, ptr %13, i32 0, i32 0
  %15 = getelementptr inbounds [3 x i32], ptr %14, i64 0, i64 2
  %16 = load i32, ptr %15, align 4, !tbaa !9
  %17 = mul i32 %12, %16
  %18 = getelementptr inbounds nuw %struct.btMiniSDF, ptr %5, i32 0, i32 1
  %19 = getelementptr inbounds [3 x i32], ptr %18, i64 0, i64 0
  %20 = load i32, ptr %19, align 8, !tbaa !9
  %21 = load ptr, ptr %4, align 8, !tbaa !105
  %22 = getelementptr inbounds nuw %struct.btMultiIndex, ptr %21, i32 0, i32 0
  %23 = getelementptr inbounds [3 x i32], ptr %22, i64 0, i64 1
  %24 = load i32, ptr %23, align 4, !tbaa !9
  %25 = mul i32 %20, %24
  %26 = add i32 %17, %25
  %27 = load ptr, ptr %4, align 8, !tbaa !105
  %28 = getelementptr inbounds nuw %struct.btMultiIndex, ptr %27, i32 0, i32 0
  %29 = getelementptr inbounds [3 x i32], ptr %28, i64 0, i64 0
  %30 = load i32, ptr %29, align 4, !tbaa !9
  %31 = add i32 %26, %30
  ret i32 %31
}