; Function Attrs: mustprogress nofree norecurse nosync nounwind willreturn memory(argmem: read) uwtable
define dso_local noundef i32 @_ZNK9btMiniSDF18multiToSingleIndexERK12btMultiIndex(ptr noundef nonnull readonly align 8 captures(none) dereferenceable(200) %0, ptr noundef nonnull readonly align 4 captures(none) dereferenceable(12) %1) local_unnamed_addr #5 align 2 {
  %3 = getelementptr inbounds nuw i8, ptr %0, i64 32
  %4 = getelementptr inbounds nuw i8, ptr %0, i64 36
  %5 = load i32, ptr %4, align 4, !tbaa !8
  %6 = load i32, ptr %3, align 8, !tbaa !8
  %7 = getelementptr inbounds nuw i8, ptr %1, i64 8
  %8 = load i32, ptr %7, align 4, !tbaa !8
  %9 = mul i32 %8, %5
  %10 = getelementptr inbounds nuw i8, ptr %1, i64 4
  %11 = load i32, ptr %10, align 4, !tbaa !8
  %12 = load i32, ptr %1, align 4, !tbaa !8
  %reass.add = add i32 %11, %9
  %reass.mul = mul i32 %reass.add, %6
  %13 = add i32 %reass.mul, %12
  ret i32 %13
}